ccopy_reg
_reconstructor
p0
(cgoogle.oauth2.credentials
Credentials
p1
c__builtin__
object
p2
Ntp3
Rp4
(dp5
S'_token_uri'
p6
Vhttps://oauth2.googleapis.com/token
p7
sS'_client_secret'
p8
VqXzusmrzcp7JfVFCfSMq0yiK
p9
sS'_id_token'
p10
NsS'token'
p11
Vya29.GltBB5eIHqWT22zt-GmtbpgNRWTWRAcjRy_9DE04q_Aw_p7BQymToFt0iMeXmYi7vz3MC9LU4KTy2W1IBFQrEgOi5qJZnUk5ZxFSnGvn4UIXh3VrfEbLmuymFKUS
p12
sS'_refresh_token'
p13
V1/dHIn8Oo5IkLns4whM67elkkBdtPg8k8_wEP7NC7o8p0
p14
sS'_scopes'
p15
(lp16
S'https://www.googleapis.com/auth/drive'
p17
aS'https://www.googleapis.com/auth/drive.readonly'
p18
aS'https://www.googleapis.com/auth/drive.file'
p19
asS'_client_id'
p20
V810159820165-o34juaspr8u858hj300dr52qs1prjeaq.apps.googleusercontent.com
p21
sS'expiry'
p22
cdatetime
datetime
p23
(S'\x07\xe3\x07\n\x15\x00+\x0e\xc6M'
p24
tp25
Rp26
sb.