ccopy_reg
_reconstructor
p0
(cgoogle.oauth2.credentials
Credentials
p1
c__builtin__
object
p2
Ntp3
Rp4
(dp5
S'_token_uri'
p6
Vhttps://oauth2.googleapis.com/token
p7
sS'_client_secret'
p8
VqXzusmrzcp7JfVFCfSMq0yiK
p9
sS'_id_token'
p10
NsS'token'
p11
Vya29.GltYB8Tj14USqma314WuyZrqZbYDMo1c-kumeSM-iUKB97s-ezJw0EGefDZAYb8TcZsHVfqelbv-iknm0EXXYLP2zI_ftHu9e5hiWsQbsa-9CvKC0VsIi5tC8lUx
p12
sS'_refresh_token'
p13
V1/p-BYMivftN2BpkemNK9_1OJ7f6QEScM-sVkRRPzcTlw
p14
sS'_scopes'
p15
(lp16
S'https://www.googleapis.com/auth/drive'
p17
aS'https://www.googleapis.com/auth/drive.readonly'
p18
aS'https://www.googleapis.com/auth/drive.file'
p19
asS'_client_id'
p20
V810159820165-o34juaspr8u858hj300dr52qs1prjeaq.apps.googleusercontent.com
p21
sS'expiry'
p22
cdatetime
datetime
p23
(S'\x07\xe3\x08\x02\x10\x13"\x01\x05\x83'
p24
tp25
Rp26
sb.