ccopy_reg
_reconstructor
p0
(cgoogle.oauth2.credentials
Credentials
p1
c__builtin__
object
p2
Ntp3
Rp4
(dp5
S'_token_uri'
p6
Vhttps://oauth2.googleapis.com/token
p7
sS'_client_secret'
p8
VqXzusmrzcp7JfVFCfSMq0yiK
p9
sS'_id_token'
p10
NsS'token'
p11
Vya29.GltYBwDfC7WrJzbESQr2_wYhRKyu5PbEKvR3B6pvHiaeg2hR1h0WmnPDxGM5b64Z5O__sL0SAhDJ13rdMHL6jVy8YyxGHY9cYF3leMEU_zuhANoHkTkXSjnNOTvI
p12
sS'_refresh_token'
p13
V1/Hd6fPUc0JYkST52tVGv-CFHLr4uUIWlJVNoDyL2m44w
p14
sS'_scopes'
p15
(lp16
S'https://www.googleapis.com/auth/drive'
p17
aS'https://www.googleapis.com/auth/drive.readonly'
p18
aS'https://www.googleapis.com/auth/drive.file'
p19
asS'_client_id'
p20
V810159820165-o34juaspr8u858hj300dr52qs1prjeaq.apps.googleusercontent.com
p21
sS'expiry'
p22
cdatetime
datetime
p23
(S'\x07\xe3\x08\x02\x10\x17\x12\x00-?'
p24
tp25
Rp26
sb.